; Function Attrs: mustprogress uwtable
define hidden noalias noundef ptr @_ZN7datalog27explanation_relation_plugin11mk_union_fnERKNS_13relation_baseES3_PS2_(ptr noundef nonnull readnone align 8 dereferenceable(64) %this, ptr nocapture noundef nonnull readonly align 8 dereferenceable(28) %tgt, ptr nocapture noundef nonnull readonly align 8 dereferenceable(28) %src, ptr noundef readonly %delta) unnamed_addr #3 align 2 personality ptr @__gxx_personality_v0 {
entry:
  %m_plugin.i.i = getelementptr inbounds i8, ptr %tgt, i64 8
  %0 = load ptr, ptr %m_plugin.i.i, align 8
  %cmp.i = icmp eq ptr %0, %this
  br i1 %cmp.i, label %lor.lhs.false, label %return

lor.lhs.false:                                    ; preds = %entry
  %tobool.not = icmp eq ptr %delta, null
  br i1 %tobool.not, label %if.end, label %land.lhs.true

land.lhs.true:                                    ; preds = %lor.lhs.false
  %m_plugin.i.i2 = getelementptr inbounds i8, ptr %delta, i64 8
  %1 = load ptr, ptr %m_plugin.i.i2, align 8
  %cmp.i3 = icmp eq ptr %1, %this
  br i1 %cmp.i3, label %if.end, label %return

if.end:                                           ; preds = %land.lhs.true, %lor.lhs.false
  %m_plugin.i.i4 = getelementptr inbounds i8, ptr %src, i64 8
  %2 = load ptr, ptr %m_plugin.i.i4, align 8
  %cmp.i5 = icmp eq ptr %2, %this
  %call7 = tail call noalias noundef ptr @_ZN6memory8allocateEm(i64 noundef 16)
  %m_delta_union_fun.i6 = getelementptr inbounds i8, ptr %call7, i64 8
  %. = select i1 %cmp.i5, ptr getelementptr inbounds ({ [5 x ptr] }, ptr @_ZTVN7datalog27explanation_relation_plugin8union_fnE, i64 0, i32 0, i64 2), ptr getelementptr inbounds ({ [5 x ptr] }, ptr @_ZTVN7datalog27explanation_relation_plugin16foreign_union_fnE, i64 0, inrange i32 0, i64 2)
  store ptr %., ptr %call7, align 8
  store ptr null, ptr %m_delta_union_fun.i6, align 8
  br label %return

return:                                           ; preds = %if.end, %entry, %land.lhs.true
  %retval.0 = phi ptr [ null, %land.lhs.true ], [ null, %entry ], [ %call7, %if.end ]
  ret ptr %retval.0
}